line=0||traceback=(_ZN11EnvironmentD1Ev+0x92)[0x5609f1ccfed4]
line=1||traceback=(_ZN9__gnu_cxx13new_allocatorI11EnvironmentE7destroyIS1_EEvPT_+0x1c)[0x5609f1cce2e8]
line=2||traceback=(_ZNSt16allocator_traitsISaI11EnvironmentEE7destroyIS0_EEvRS1_PT_+0x23)[0x5609f1cce1fb]
line=3||traceback=(_ZNSt23_Sp_counted_ptr_inplaceI11EnvironmentSaIS0_ELN9__gnu_cxx12_Lock_policyE2EE10_M_disposeEv+0x37)[0x5609f1ccdc91]
line=4||traceback=(_ZNSt16_Sp_counted_baseILN9__gnu_cxx12_Lock_policyE2EE10_M_releaseEv+0x87)[0x5609f1c800af]
line=5||traceback=(_ZNSt14__shared_countILN9__gnu_cxx12_Lock_policyE2EED2Ev+0x48)[0x5609f1c7eca0]
line=6||traceback=(_ZNSt12__shared_ptrI11EnvironmentLN9__gnu_cxx12_Lock_policyE2EED1Ev+0x1c)[0x5609f1c7d36e]
line=7||traceback=(_ZNSt10shared_ptrI11EnvironmentED1Ev+0x18)[0x5609f1c7d38a]
line=8||traceback=(_ZN9InterpterD1Ev+0x8a)[0x5609f1c7d418]
line=9||traceback=(_ZN6LoxCxxD1Ev+0x1c)[0x5609f1c7ec2e]
line=10||traceback=(main+0x39b)[0x5609f1c7cc17]
line=11||traceback=(__libc_start_main+0xf3)[0x7fa17c6c4083]
line=12||traceback=(_start+0x2e)[0x5609f1c13c9e]
line=0||traceback=(_ZN11EnvironmentD1Ev+0x92)[0x5609f1ccfed4]
line=1||traceback=(_ZN9__gnu_cxx13new_allocatorI11EnvironmentE7destroyIS1_EEvPT_+0x1c)[0x5609f1cce2e8]
line=2||traceback=(_ZNSt16allocator_traitsISaI11EnvironmentEE7destroyIS0_EEvRS1_PT_+0x23)[0x5609f1cce1fb]
line=3||traceback=(_ZNSt23_Sp_counted_ptr_inplaceI11EnvironmentSaIS0_ELN9__gnu_cxx12_Lock_policyE2EE10_M_disposeEv+0x37)[0x5609f1ccdc91]
line=4||traceback=(_ZNSt16_Sp_counted_baseILN9__gnu_cxx12_Lock_policyE2EE10_M_releaseEv+0x87)[0x5609f1c800af]
line=5||traceback=(_ZNSt14__shared_countILN9__gnu_cxx12_Lock_policyE2EED2Ev+0x48)[0x5609f1c7eca0]
line=6||traceback=(_ZNSt12__shared_ptrI11EnvironmentLN9__gnu_cxx12_Lock_policyE2EED1Ev+0x1c)[0x5609f1c7d36e]
line=7||traceback=(_ZNSt12__shared_ptrI11EnvironmentLN9__gnu_cxx12_Lock_policyE2EEaSEOS3_+0xd7)[0x5609f1cd1c29]
line=8||traceback=(_ZNSt10shared_ptrI11EnvironmentEaSEOS1_+0x2c)[0x5609f1cd0620]
line=9||traceback=(_ZN11EnvironmentD1Ev+0xd7)[0x5609f1ccff19]
line=10||traceback=(_ZN9__gnu_cxx13new_allocatorI11EnvironmentE7destroyIS1_EEvPT_+0x1c)[0x5609f1cce2e8]
line=11||traceback=(_ZNSt16allocator_traitsISaI11EnvironmentEE7destroyIS0_EEvRS1_PT_+0x23)[0x5609f1cce1fb]
line=12||traceback=(_ZNSt23_Sp_counted_ptr_inplaceI11EnvironmentSaIS0_ELN9__gnu_cxx12_Lock_policyE2EE10_M_disposeEv+0x37)[0x5609f1ccdc91]
line=13||traceback=(_ZNSt16_Sp_counted_baseILN9__gnu_cxx12_Lock_policyE2EE10_M_releaseEv+0x87)[0x5609f1c800af]
line=14||traceback=(_ZNSt14__shared_countILN9__gnu_cxx12_Lock_policyE2EED2Ev+0x48)[0x5609f1c7eca0]
line=15||traceback=(_ZNSt12__shared_ptrI11EnvironmentLN9__gnu_cxx12_Lock_policyE2EED1Ev+0x1c)[0x5609f1c7d36e]
line=16||traceback=(_ZNSt10shared_ptrI11EnvironmentED1Ev+0x18)[0x5609f1c7d38a]
line=17||traceback=(_ZN9InterpterD1Ev+0x8a)[0x5609f1c7d418]
line=18||traceback=(_ZN6LoxCxxD1Ev+0x1c)[0x5609f1c7ec2e]
line=19||traceback=(main+0x39b)[0x5609f1c7cc17]
line=20||traceback=(__libc_start_main+0xf3)[0x7fa17c6c4083]
line=21||traceback=(_start+0x2e)[0x5609f1c13c9e]
line=0||traceback=(_ZN11EnvironmentD1Ev+0x92)[0x5609f1ccfed4]
line=1||traceback=(_ZN9InterpterD1Ev+0x9a)[0x5609f1c7d428]
line=2||traceback=(_ZN6LoxCxxD1Ev+0x1c)[0x5609f1c7ec2e]
line=3||traceback=(main+0x39b)[0x5609f1c7cc17]
line=4||traceback=(__libc_start_main+0xf3)[0x7fa17c6c4083]
line=5||traceback=(_start+0x2e)[0x5609f1c13c9e]
line=0||traceback=(_ZN11EnvironmentD1Ev+0x92)[0x5609f1ccfed4]
line=1||traceback=(_ZNSt15_Sp_counted_ptrIP11EnvironmentLN9__gnu_cxx12_Lock_policyE2EE10_M_disposeEv+0x47)[0x5609f1cce133]
line=2||traceback=(_ZNSt16_Sp_counted_baseILN9__gnu_cxx12_Lock_policyE2EE10_M_releaseEv+0x87)[0x5609f1c800af]
line=3||traceback=(_ZNSt14__shared_countILN9__gnu_cxx12_Lock_policyE2EED2Ev+0x48)[0x5609f1c7eca0]
line=4||traceback=(_ZNSt12__shared_ptrI11EnvironmentLN9__gnu_cxx12_Lock_policyE2EED1Ev+0x1c)[0x5609f1c7d36e]
line=5||traceback=(_ZNSt10shared_ptrI11EnvironmentED1Ev+0x18)[0x5609f1c7d38a]
line=6||traceback=(_ZN11LoxFunctionD1Ev+0x4f)[0x5609f1cce29b]
line=7||traceback=(_ZN9__gnu_cxx13new_allocatorI11LoxFunctionE7destroyIS1_EEvPT_+0x1c)[0x5609f1cce2ba]
line=8||traceback=(_ZNSt16allocator_traitsISaI11LoxFunctionEE7destroyIS0_EEvRS1_PT_+0x23)[0x5609f1cce1bb]
line=9||traceback=(_ZNSt23_Sp_counted_ptr_inplaceI11LoxFunctionSaIS0_ELN9__gnu_cxx12_Lock_policyE2EE10_M_disposeEv+0x37)[0x5609f1ccda03]
line=10||traceback=(_ZNSt16_Sp_counted_baseILN9__gnu_cxx12_Lock_policyE2EE10_M_releaseEv+0x87)[0x5609f1c800af]
line=11||traceback=(_ZNSt14__shared_countILN9__gnu_cxx12_Lock_policyE2EED2Ev+0x48)[0x5609f1c7eca0]
line=12||traceback=(_ZNSt12__shared_ptrI11LoxCallableLN9__gnu_cxx12_Lock_policyE2EED2Ev+0x1c)[0x5609f1cc47aa]
line=13||traceback=(_ZNSt10shared_ptrI11LoxCallableED1Ev+0x18)[0x5609f1cc47c6]
line=14||traceback=(_ZNSt3any17_Manager_externalISt10shared_ptrI11LoxCallableEE9_S_manageENS_3_OpEPKS_PNS_4_ArgE+0x1af)[0x5609f1cc6dc3]
line=15||traceback=(_ZNSt3any5resetEv+0x57)[0x5609f1c7d0f5]
line=16||traceback=(_ZNSt3anyD2Ev+0x18)[0x5609f1c7d09a]
line=17||traceback=(_ZNSt4pairIKNSt7__cxx1112basic_stringIcSt11char_traitsIcESaIcEEESt3anyED1Ev+0x1c)[0x5609f1cd02b0]
line=18||traceback=(_ZN9__gnu_cxx13new_allocatorISt13_Rb_tree_nodeISt4pairIKNSt7__cxx1112basic_stringIcSt11char_traitsIcESaIcEEESt3anyEEE7destroyISB_EEvPT_+0x1c)[0x5609f1cd5e62]
line=19||traceback=(_ZNSt16allocator_traitsISaISt13_Rb_tree_nodeISt4pairIKNSt7__cxx1112basic_stringIcSt11char_traitsIcESaIcEEESt3anyEEEE7destroyISA_EEvRSC_PT_+0x23)[0x5609f1cd5c09]
line=20||traceback=(_ZNSt8_Rb_treeINSt7__cxx1112basic_stringIcSt11char_traitsIcESaIcEEESt4pairIKS5_St3anyESt10_Select1stIS9_ESt4lessIS5_ESaIS9_EE15_M_destroy_nodeEPSt13_Rb_tree_nodeIS9_E+0x37)[0x5609f1cd4eb9]
line=21||traceback=(_ZNSt8_Rb_treeINSt7__cxx1112basic_stringIcSt11char_traitsIcESaIcEEESt4pairIKS5_St3anyESt10_Select1stIS9_ESt4lessIS5_ESaIS9_EE12_M_drop_nodeEPSt13_Rb_tree_nodeIS9_E+0x23)[0x5609f1cd2b8d]
line=22||traceback=(_ZNSt8_Rb_treeINSt7__cxx1112basic_stringIcSt11char_traitsIcESaIcEEESt4pairIKS5_St3anyESt10_Select1stIS9_ESt4lessIS5_ESaIS9_EE8_M_eraseEPSt13_Rb_tree_nodeIS9_E+0x58)[0x5609f1cd15b0]
line=23||traceback=(_ZNSt8_Rb_treeINSt7__cxx1112basic_stringIcSt11char_traitsIcESaIcEEESt4pairIKS5_St3anyESt10_Select1stIS9_ESt4lessIS5_ESaIS9_EED1Ev+0x2a)[0x5609f1cd035e]
line=24||traceback=(_ZNSt3mapINSt7__cxx1112basic_stringIcSt11char_traitsIcESaIcEEESt3anySt4lessIS5_ESaISt4pairIKS5_S6_EEED2Ev+0x18)[0x5609f1cd0266]
line=25||traceback=(_ZN11EnvironmentD1Ev+0x10f)[0x5609f1ccff51]
line=26||traceback=(_ZN9InterpterD1Ev+0x9a)[0x5609f1c7d428]
line=27||traceback=(_ZN6LoxCxxD1Ev+0x1c)[0x5609f1c7ec2e]
line=28||traceback=(main+0x39b)[0x5609f1c7cc17]
line=29||traceback=(__libc_start_main+0xf3)[0x7fa17c6c4083]
line=30||traceback=(_start+0x2e)[0x5609f1c13c9e]
=================================================================